; Function Attrs: mustprogress uwtable
define dso_local void @_Z13luaL_addvalueP11luaL_Strbuf(ptr noundef %0) local_unnamed_addr #2 {
  %2 = alloca i64, align 8
  %3 = getelementptr inbounds i8, ptr %0, i64 16
  %4 = load ptr, ptr %3, align 8
  %5 = call noundef ptr @_Z13lua_tolstringP9lua_StateiPm(ptr noundef %4, i32 noundef -1, ptr noundef nonnull %2)
  %.not = icmp eq ptr %5, null
  br i1 %.not, label %53, label %6

6:                                                ; preds = %1
  %7 = getelementptr inbounds i8, ptr %0, i64 8
  %8 = load ptr, ptr %7, align 8
  %9 = load ptr, ptr %0, align 8
  %10 = ptrtoint ptr %8 to i64
  %11 = ptrtoint ptr %9 to i64
  %12 = sub i64 %10, %11
  %13 = load i64, ptr %2, align 8
  %14 = icmp ult i64 %12, %13
  br i1 %14, label %15, label %47

15:                                               ; preds = %6
  %16 = sub i64 %13, %12
  %17 = load ptr, ptr %3, align 8
  %18 = getelementptr inbounds i8, ptr %0, i64 24
  %19 = load ptr, ptr %18, align 8
  %.not.i = icmp eq ptr %19, null
  %20 = getelementptr inbounds i8, ptr %19, i64 24
  %21 = getelementptr inbounds i8, ptr %0, i64 32
  %22 = select i1 %.not.i, ptr %21, ptr %20
  %23 = ptrtoint ptr %22 to i64
  %24 = sub i64 %10, %23
  %25 = add i64 %24, %16
  %26 = xor i64 %25, -1
  %27 = icmp ugt i64 %24, %26
  br i1 %27, label %28, label %_ZL17getnextbuffersizeP9lua_Statemm.exit.i

28:                                               ; preds = %15
  call void (ptr, ptr, ...) @_Z11luaL_errorLP9lua_StatePKcz(ptr noundef %17, ptr noundef nonnull @.str.22) #11
  unreachable

_ZL17getnextbuffersizeP9lua_Statemm.exit.i:       ; preds = %15
  %29 = lshr i64 %24, 1
  %30 = add i64 %29, %24
  %spec.select.i.i = call noundef i64 @llvm.umax.i64(i64 %30, i64 %25)
  %31 = call noundef ptr @_Z13luaS_bufstartP9lua_Statem(ptr noundef %17, i64 noundef %spec.select.i.i)
  %32 = getelementptr inbounds i8, ptr %31, i64 24
  %33 = load ptr, ptr %0, align 8
  %34 = ptrtoint ptr %33 to i64
  %35 = sub i64 %34, %23
  call void @llvm.memcpy.p0.p0.i64(ptr nonnull align 8 %32, ptr nonnull align 1 %22, i64 %35, i1 false)
  %36 = icmp eq ptr %22, %21
  br i1 %36, label %37, label %_ZL12extendstrbufP11luaL_Strbufmi.exit

37:                                               ; preds = %_ZL17getnextbuffersizeP9lua_Statemm.exit.i
  call void @_Z11lua_pushnilP9lua_State(ptr noundef %17)
  call void @_Z10lua_insertP9lua_Statei(ptr noundef %17, i32 noundef -2)
  br label %_ZL12extendstrbufP11luaL_Strbufmi.exit

_ZL12extendstrbufP11luaL_Strbufmi.exit:           ; preds = %_ZL17getnextbuffersizeP9lua_Statemm.exit.i, %37
  %38 = getelementptr inbounds i8, ptr %17, i64 8
  %39 = load ptr, ptr %38, align 8
  %40 = getelementptr inbounds i8, ptr %39, i64 -32
  store ptr %31, ptr %40, align 8
  %41 = getelementptr inbounds i8, ptr %39, i64 -20
  store i32 5, ptr %41, align 4
  %42 = load ptr, ptr %0, align 8
  %43 = ptrtoint ptr %42 to i64
  %44 = sub i64 %43, %23
  %45 = getelementptr inbounds i8, ptr %32, i64 %44
  store ptr %45, ptr %0, align 8
  %46 = getelementptr inbounds i8, ptr %32, i64 %spec.select.i.i
  store ptr %46, ptr %7, align 8
  store ptr %31, ptr %18, align 8
  %.pre = load i64, ptr %2, align 8
  br label %47

47:                                               ; preds = %_ZL12extendstrbufP11luaL_Strbufmi.exit, %6
  %48 = phi i64 [ %.pre, %_ZL12extendstrbufP11luaL_Strbufmi.exit ], [ %13, %6 ]
  %49 = phi ptr [ %45, %_ZL12extendstrbufP11luaL_Strbufmi.exit ], [ %9, %6 ]
  call void @llvm.memcpy.p0.p0.i64(ptr align 1 %49, ptr nonnull align 1 %5, i64 %48, i1 false)
  %50 = load i64, ptr %2, align 8
  %51 = load ptr, ptr %0, align 8
  %52 = getelementptr inbounds i8, ptr %51, i64 %50
  store ptr %52, ptr %0, align 8
  call void @_Z10lua_settopP9lua_Statei(ptr noundef %4, i32 noundef -2)
  br label %53

53:                                               ; preds = %47, %1
  ret void
}